; ModuleID = '36/400.c'
source_filename = "36/400.c"
target datalayout = "e-m:e-p270:32:32-p271:32:32-p272:64:64-i64:64-f80:128-n8:16:32:64-S128"
target triple = "x86_64-pc-linux-gnu"

@.str = private unnamed_addr constant [6 x i8] c"%s %s\00", align 1
@.str.1 = private unnamed_addr constant [4 x i8] c"NO\0A\00", align 1
@.str.2 = private unnamed_addr constant [5 x i8] c"YES\0A\00", align 1

; Function Attrs: noinline nounwind uwtable
define dso_local void @main() #0 {
  %1 = alloca [100 x i8], align 16
  %2 = alloca [100 x i8], align 16
  %3 = bitcast [100 x i8]* %1 to i8*
  call void @llvm.memset.p0i8.i64(i8* align 16 %3, i8 0, i64 100, i1 false)
  %4 = bitcast [100 x i8]* %2 to i8*
  call void @llvm.memset.p0i8.i64(i8* align 16 %4, i8 0, i64 100, i1 false)
  %5 = getelementptr inbounds [100 x i8], [100 x i8]* %1, i64 0, i64 0
  %6 = getelementptr inbounds [100 x i8], [100 x i8]* %2, i64 0, i64 0
  %7 = call i32 (i8*, ...) @__isoc99_scanf(i8* getelementptr inbounds ([6 x i8], [6 x i8]* @.str, i64 0, i64 0), i8* %5, i8* %6)
  %8 = getelementptr inbounds [100 x i8], [100 x i8]* %1, i64 0, i64 0
  %9 = call i64 @strlen(i8* %8) #4
  %10 = getelementptr inbounds [100 x i8], [100 x i8]* %2, i64 0, i64 0
  %11 = call i64 @strlen(i8* %10) #4
  %12 = icmp ne i64 %9, %11
  br i1 %12, label %13, label %15

13:                                               ; preds = %0
  %14 = call i32 (i8*, ...) @printf(i8* getelementptr inbounds ([4 x i8], [4 x i8]* @.str.1, i64 0, i64 0))
  br label %25

15:                                               ; preds = %0
  %16 = getelementptr inbounds [100 x i8], [100 x i8]* %1, i64 0, i64 0
  %17 = getelementptr inbounds [100 x i8], [100 x i8]* %2, i64 0, i64 0
  %18 = call i32 @cmp(i8* %16, i8* %17, i32 0)
  %19 = icmp eq i32 %18, 1
  br i1 %19, label %20, label %22

20:                                               ; preds = %15
  %21 = call i32 (i8*, ...) @printf(i8* getelementptr inbounds ([5 x i8], [5 x i8]* @.str.2, i64 0, i64 0))
  br label %24

22:                                               ; preds = %15
  %23 = call i32 (i8*, ...) @printf(i8* getelementptr inbounds ([4 x i8], [4 x i8]* @.str.1, i64 0, i64 0))
  br label %24

24:                                               ; preds = %22, %20
  br label %25

25:                                               ; preds = %24, %13
  ret void
}

; Function Attrs: argmemonly nounwind willreturn
declare void @llvm.memset.p0i8.i64(i8* nocapture writeonly, i8, i64, i1 immarg) #1

declare dso_local i32 @__isoc99_scanf(i8*, ...) #2

; Function Attrs: nounwind readonly
declare dso_local i64 @strlen(i8*) #3

declare dso_local i32 @printf(i8*, ...) #2

; Function Attrs: noinline nounwind uwtable
define dso_local i32 @cmp(i8* %0, i8* %1, i32 %2) #0 {
  %4 = alloca i32, align 4
  %5 = alloca i8*, align 8
  %6 = alloca i8*, align 8
  %7 = alloca i32, align 4
  %8 = alloca i32, align 4
  store i8* %0, i8** %5, align 8
  store i8* %1, i8** %6, align 8
  store i32 %2, i32* %7, align 4
  %9 = load i32, i32* %7, align 4
  %10 = sext i32 %9 to i64
  %11 = load i8*, i8** %5, align 8
  %12 = call i64 @strlen(i8* %11) #4
  %13 = icmp eq i64 %10, %12
  br i1 %13, label %14, label %15

14:                                               ; preds = %3
  store i32 1, i32* %4, align 4
  br label %58

15:                                               ; preds = %3
  store i32 0, i32* %8, align 4
  br label %16

16:                                               ; preds = %38, %15
  %17 = load i32, i32* %8, align 4
  %18 = sext i32 %17 to i64
  %19 = load i8*, i8** %5, align 8
  %20 = call i64 @strlen(i8* %19) #4
  %21 = icmp ult i64 %18, %20
  br i1 %21, label %22, label %41

22:                                               ; preds = %16
  %23 = load i8*, i8** %6, align 8
  %24 = load i32, i32* %8, align 4
  %25 = sext i32 %24 to i64
  %26 = getelementptr inbounds i8, i8* %23, i64 %25
  %27 = load i8, i8* %26, align 1
  %28 = sext i8 %27 to i32
  %29 = load i8*, i8** %5, align 8
  %30 = load i32, i32* %7, align 4
  %31 = sext i32 %30 to i64
  %32 = getelementptr inbounds i8, i8* %29, i64 %31
  %33 = load i8, i8* %32, align 1
  %34 = sext i8 %33 to i32
  %35 = icmp eq i32 %28, %34
  br i1 %35, label %36, label %37

36:                                               ; preds = %22
  br label %41

37:                                               ; preds = %22
  br label %38

38:                                               ; preds = %37
  %39 = load i32, i32* %8, align 4
  %40 = add nsw i32 %39, 1
  store i32 %40, i32* %8, align 4
  br label %16

41:                                               ; preds = %36, %16
  %42 = load i32, i32* %8, align 4
  %43 = sext i32 %42 to i64
  %44 = load i8*, i8** %5, align 8
  %45 = call i64 @strlen(i8* %44) #4
  %46 = icmp eq i64 %43, %45
  br i1 %46, label %47, label %48

47:                                               ; preds = %41
  store i32 0, i32* %4, align 4
  br label %58

48:                                               ; preds = %41
  %49 = load i8*, i8** %6, align 8
  %50 = load i32, i32* %8, align 4
  %51 = sext i32 %50 to i64
  %52 = getelementptr inbounds i8, i8* %49, i64 %51
  store i8 0, i8* %52, align 1
  %53 = load i8*, i8** %5, align 8
  %54 = load i8*, i8** %6, align 8
  %55 = load i32, i32* %7, align 4
  %56 = add nsw i32 %55, 1
  %57 = call i32 @cmp(i8* %53, i8* %54, i32 %56)
  store i32 %57, i32* %4, align 4
  br label %58

58:                                               ; preds = %48, %47, %14
  %59 = load i32, i32* %4, align 4
  ret i32 %59
}


!llvm.module.flags = !{!0}
!llvm.ident = !{!1}

!0 = !{i32 1, !"wchar_size", i32 4}
!1 = !{!"clang version 10.0.0-4ubuntu1 "}
